target datalayout = "e-m:e-p270:32:32-p271:32:32-p272:64:64-i64:64-i128:128-f80:128-n8:16:32:64-S128"
target triple = "x86_64-pc-linux-gnu"

@hf_ecmp_buffer_size = internal global i32 0, align 4
@hf_ecmp_max_response = internal global i32 0, align 4
@hf_ecmp_max_handle = internal global i32 0, align 4
@hf_ecmp_info_address = internal global i32 0, align 4
@hf_ecmp_physical_address = internal global i32 0, align 4
@hf_ecmp_logical_address = internal global i32 0, align 4
@ett_ecmp_address = internal global i32 0, align 4
@ett_ecmp_info_type = internal global i32 0, align 4
@ett_ecmp_info_count = internal global i32 0, align 4
@.str.653 = private unnamed_addr constant [21 x i8] c"Response Information\00", align 1
@.str.654 = private unnamed_addr constant [11 x i8] c"Address %d\00", align 1

; Function Attrs: null_pointer_is_valid sspstrong uwtable
define internal void @add_info_response(i32 noundef %0, ptr noundef %1, ptr noundef %2) #0 {
  %4 = alloca i32, align 4
  %5 = alloca ptr, align 8
  %6 = alloca ptr, align 8
  %7 = alloca ptr, align 8
  %8 = alloca ptr, align 8
  %9 = alloca ptr, align 8
  %10 = alloca ptr, align 8
  %11 = alloca i16, align 2
  %12 = alloca i8, align 1
  %13 = alloca i8, align 1
  store i32 %0, ptr %4, align 4
  store ptr %1, ptr %5, align 8
  store ptr %2, ptr %6, align 8
  call void @llvm.lifetime.start.p0(i64 8, ptr %7) #3
  store ptr null, ptr %7, align 8
  call void @llvm.lifetime.start.p0(i64 8, ptr %8) #3
  store ptr null, ptr %8, align 8
  call void @llvm.lifetime.start.p0(i64 8, ptr %9) #3
  store ptr null, ptr %9, align 8
  call void @llvm.lifetime.start.p0(i64 8, ptr %10) #3
  call void @llvm.lifetime.start.p0(i64 2, ptr %11) #3
  store i16 0, ptr %11, align 2
  call void @llvm.lifetime.start.p0(i64 1, ptr %12) #3
  store i8 0, ptr %12, align 1
  call void @llvm.lifetime.start.p0(i64 1, ptr %13) #3
  store i8 0, ptr %13, align 1
  %14 = load ptr, ptr %5, align 8
  %15 = call i32 @tvb_reported_length(ptr noundef %14)
  %16 = trunc i32 %15 to i16
  store i16 %16, ptr %11, align 2
  %17 = load ptr, ptr %6, align 8
  %18 = load ptr, ptr %5, align 8
  %19 = load i32, ptr %4, align 4
  %20 = load i32, ptr @ett_ecmp_info_type, align 4
  %21 = call ptr @proto_tree_add_subtree(ptr noundef %17, ptr noundef %18, i32 noundef %19, i32 noundef 6, i32 noundef %20, ptr noundef null, ptr noundef @.str.653)
  store ptr %21, ptr %8, align 8
  %22 = load ptr, ptr %8, align 8
  %23 = load i32, ptr @hf_ecmp_buffer_size, align 4
  %24 = load ptr, ptr %5, align 8
  %25 = load i32, ptr %4, align 4
  %26 = call ptr @proto_tree_add_item(ptr noundef %22, i32 noundef %23, ptr noundef %24, i32 noundef %25, i32 noundef 2, i32 noundef 0)
  %27 = load i32, ptr %4, align 4
  %28 = add i32 %27, 2
  store i32 %28, ptr %4, align 4
  %29 = load ptr, ptr %8, align 8
  %30 = load i32, ptr @hf_ecmp_max_response, align 4
  %31 = load ptr, ptr %5, align 8
  %32 = load i32, ptr %4, align 4
  %33 = call ptr @proto_tree_add_item(ptr noundef %29, i32 noundef %30, ptr noundef %31, i32 noundef %32, i32 noundef 2, i32 noundef 0)
  %34 = load i32, ptr %4, align 4
  %35 = add i32 %34, 2
  store i32 %35, ptr %4, align 4
  %36 = load ptr, ptr %8, align 8
  %37 = load i32, ptr @hf_ecmp_max_handle, align 4
  %38 = load ptr, ptr %5, align 8
  %39 = load i32, ptr %4, align 4
  %40 = call ptr @proto_tree_add_item(ptr noundef %36, i32 noundef %37, ptr noundef %38, i32 noundef %39, i32 noundef 2, i32 noundef 0)
  %41 = load i32, ptr %4, align 4
  %42 = add i32 %41, 2
  store i32 %42, ptr %4, align 4
  %43 = load i16, ptr %11, align 2
  %44 = zext i16 %43 to i32
  %45 = load i32, ptr %4, align 4
  %46 = icmp sgt i32 %44, %45
  br i1 %46, label %47, label %95

47:                                               ; preds = %3
  %48 = load ptr, ptr %6, align 8
  %49 = load i32, ptr @hf_ecmp_info_address, align 4
  %50 = load ptr, ptr %5, align 8
  %51 = load i32, ptr %4, align 4
  %52 = call ptr @proto_tree_add_item(ptr noundef %48, i32 noundef %49, ptr noundef %50, i32 noundef %51, i32 noundef 1, i32 noundef 0)
  store ptr %52, ptr %7, align 8
  %53 = load ptr, ptr %7, align 8
  %54 = load i32, ptr @ett_ecmp_info_count, align 4
  %55 = call ptr @proto_item_add_subtree(ptr noundef %53, i32 noundef %54)
  store ptr %55, ptr %9, align 8
  %56 = load ptr, ptr %5, align 8
  %57 = load i32, ptr %4, align 4
  %58 = call zeroext i8 @tvb_get_uint8(ptr noundef %56, i32 noundef %57)
  store i8 %58, ptr %12, align 1
  %59 = load i8, ptr %12, align 1
  %60 = zext i8 %59 to i32
  %61 = icmp sgt i32 %60, 0
  br i1 %61, label %62, label %94

62:                                               ; preds = %47
  store i8 0, ptr %13, align 1
  br label %63

63:                                               ; preds = %90, %62
  %64 = load i8, ptr %13, align 1
  %65 = zext i8 %64 to i32
  %66 = load i8, ptr %12, align 1
  %67 = zext i8 %66 to i32
  %68 = icmp slt i32 %65, %67
  br i1 %68, label %69, label %93

69:                                               ; preds = %63
  %70 = load ptr, ptr %9, align 8
  %71 = load ptr, ptr %5, align 8
  %72 = load i32, ptr %4, align 4
  %73 = load i32, ptr @ett_ecmp_address, align 4
  %74 = load i8, ptr %13, align 1
  %75 = zext i8 %74 to i32
  %76 = add i32 %75, 1
  %77 = call ptr (ptr, ptr, i32, i32, i32, ptr, ptr, ...) @proto_tree_add_subtree_format(ptr noundef %70, ptr noundef %71, i32 noundef %72, i32 noundef 1, i32 noundef %73, ptr noundef null, ptr noundef @.str.654, i32 noundef %76)
  store ptr %77, ptr %10, align 8
  %78 = load ptr, ptr %10, align 8
  %79 = load i32, ptr @hf_ecmp_physical_address, align 4
  %80 = load ptr, ptr %5, align 8
  %81 = load i32, ptr %4, align 4
  %82 = call ptr @proto_tree_add_item(ptr noundef %78, i32 noundef %79, ptr noundef %80, i32 noundef %81, i32 noundef 1, i32 noundef 0)
  %83 = load ptr, ptr %10, align 8
  %84 = load i32, ptr @hf_ecmp_logical_address, align 4
  %85 = load ptr, ptr %5, align 8
  %86 = load i32, ptr %4, align 4
  %87 = call ptr @proto_tree_add_item(ptr noundef %83, i32 noundef %84, ptr noundef %85, i32 noundef %86, i32 noundef 1, i32 noundef 0)
  %88 = load i32, ptr %4, align 4
  %89 = add i32 %88, 1
  store i32 %89, ptr %4, align 4
  br label %90

90:                                               ; preds = %69
  %91 = load i8, ptr %13, align 1
  %92 = add i8 %91, 1
  store i8 %92, ptr %13, align 1
  br label %63, !llvm.loop !22

93:                                               ; preds = %63
  br label %94

94:                                               ; preds = %93, %47
  br label %95

95:                                               ; preds = %94, %3
  call void @llvm.lifetime.end.p0(i64 1, ptr %13) #3
  call void @llvm.lifetime.end.p0(i64 1, ptr %12) #3
  call void @llvm.lifetime.end.p0(i64 2, ptr %11) #3
  call void @llvm.lifetime.end.p0(i64 8, ptr %10) #3
  call void @llvm.lifetime.end.p0(i64 8, ptr %9) #3
  call void @llvm.lifetime.end.p0(i64 8, ptr %8) #3
  call void @llvm.lifetime.end.p0(i64 8, ptr %7) #3
  ret void
}