; Function Attrs: null_pointer_is_valid sspstrong uwtable
define internal fastcc void @add_info_response(i32 noundef %0, ptr noundef %1, ptr noundef %2) unnamed_addr #0 {
  %4 = tail call i32 @tvb_reported_length(ptr noundef %1)
  %5 = load i32, ptr @ett_ecmp_info_type, align 4
  %6 = tail call ptr @proto_tree_add_subtree(ptr noundef %2, ptr noundef %1, i32 noundef %0, i32 noundef 6, i32 noundef %5, ptr noundef null, ptr noundef nonnull @.str.653)
  %7 = load i32, ptr @hf_ecmp_buffer_size, align 4
  %8 = tail call ptr @proto_tree_add_item(ptr noundef %6, i32 noundef %7, ptr noundef %1, i32 noundef %0, i32 noundef 2, i32 noundef 0)
  %9 = add i32 %0, 2
  %10 = load i32, ptr @hf_ecmp_max_response, align 4
  %11 = tail call ptr @proto_tree_add_item(ptr noundef %6, i32 noundef %10, ptr noundef %1, i32 noundef %9, i32 noundef 2, i32 noundef 0)
  %12 = add i32 %0, 4
  %13 = load i32, ptr @hf_ecmp_max_handle, align 4
  %14 = tail call ptr @proto_tree_add_item(ptr noundef %6, i32 noundef %13, ptr noundef %1, i32 noundef %12, i32 noundef 2, i32 noundef 0)
  %15 = add i32 %0, 6
  %16 = and i32 %4, 65535
  %17 = icmp sgt i32 %16, %15
  br i1 %17, label %18, label %.loopexit

18:                                               ; preds = %3
  %19 = load i32, ptr @hf_ecmp_info_address, align 4
  %20 = tail call ptr @proto_tree_add_item(ptr noundef %2, i32 noundef %19, ptr noundef %1, i32 noundef %15, i32 noundef 1, i32 noundef 0)
  %21 = load i32, ptr @ett_ecmp_info_count, align 4
  %22 = tail call ptr @proto_item_add_subtree(ptr noundef %20, i32 noundef %21)
  %23 = tail call zeroext i8 @tvb_get_uint8(ptr noundef %1, i32 noundef %15)
  %.not = icmp eq i8 %23, 0
  br i1 %.not, label %.loopexit, label %.preheader.preheader

.preheader.preheader:                             ; preds = %18
  %wide.trip.count = zext i8 %23 to i32
  br label %.preheader

.preheader:                                       ; preds = %.preheader.preheader, %.preheader
  %indvars.iv = phi i32 [ 0, %.preheader.preheader ], [ %25, %.preheader ]
  %.03842 = phi i32 [ %15, %.preheader.preheader ], [ %31, %.preheader ]
  %24 = load i32, ptr @ett_ecmp_address, align 4
  %25 = add nuw nsw i32 %indvars.iv, 1
  %26 = tail call ptr (ptr, ptr, i32, i32, i32, ptr, ptr, ...) @proto_tree_add_subtree_format(ptr noundef %22, ptr noundef %1, i32 noundef %.03842, i32 noundef 1, i32 noundef %24, ptr noundef null, ptr noundef nonnull @.str.654, i32 noundef %25)
  %27 = load i32, ptr @hf_ecmp_physical_address, align 4
  %28 = tail call ptr @proto_tree_add_item(ptr noundef %26, i32 noundef %27, ptr noundef %1, i32 noundef %.03842, i32 noundef 1, i32 noundef 0)
  %29 = load i32, ptr @hf_ecmp_logical_address, align 4
  %30 = tail call ptr @proto_tree_add_item(ptr noundef %26, i32 noundef %29, ptr noundef %1, i32 noundef %.03842, i32 noundef 1, i32 noundef 0)
  %31 = add i32 %.03842, 1
  %exitcond.not = icmp eq i32 %25, %wide.trip.count
  br i1 %exitcond.not, label %.loopexit, label %.preheader, !llvm.loop !20

.loopexit:                                        ; preds = %.preheader, %18, %3
  ret void
}